target datalayout = "e-m:e-p270:32:32-p271:32:32-p272:64:64-i64:64-i128:128-f80:128-n8:16:32:64-S128"
target triple = "x86_64-pc-linux-gnu"

%struct._zend_array = type { %struct._zend_refcounted_h, %union.anon.0, i32, %union.anon.1, i32, i32, i32, i32, i64, ptr }
%struct._zend_refcounted_h = type { i32, %union.anon }
%union.anon = type { i32 }
%union.anon.0 = type { i32 }
%union.anon.1 = type { ptr }
%struct._zend_executor_globals = type { %struct._zval_struct, %struct._zval_struct, [32 x ptr], ptr, ptr, %struct._zend_array, %struct._zend_array, ptr, i32, i8, %struct._zval_struct, i32, ptr, ptr, ptr, ptr, ptr, ptr, i64, ptr, ptr, i32, ptr, i32, i64, i32, i32, i32, i8, i8, %struct.zend_atomic_bool_s, %struct.zend_atomic_bool_s, ptr, i64, ptr, ptr, %struct._zend_array, %struct._zend_array, i32, i8, %struct._zval_struct, %struct._zval_struct, %struct._zend_stack, %struct._zend_stack, %struct._zend_stack, ptr, i32, i32, i64, ptr, ptr, ptr, %struct._zend_objects_store, %struct._zend_lazy_objects_store, ptr, ptr, ptr, [3 x %struct._zend_op], ptr, i8, i8, i64, i32, i32, ptr, [16 x %struct._HashTableIterator], ptr, %union._zend_function, %struct._zend_op, %struct._zend_array, i64, %struct.zend_get_gc_buffer, ptr, ptr, ptr, i64, i8, i32, ptr, ptr, i64, %struct._zend_call_stack, i64, i64, %struct._zend_strtod_state, [6 x ptr] }
%struct.zend_atomic_bool_s = type { i8 }
%struct._zval_struct = type { %union._zend_value, %union.anon.3, %union.anon.6 }
%union._zend_value = type { i64 }
%union.anon.3 = type { i32 }
%union.anon.6 = type { i32 }
%struct._zend_stack = type { i32, i32, i32, ptr }
%struct._zend_objects_store = type { ptr, i32, i32, i32 }
%struct._zend_lazy_objects_store = type { %struct._zend_array }
%struct._HashTableIterator = type { ptr, i32, i32 }
%union._zend_function = type { %struct._zend_op_array }
%struct._zend_op_array = type { i8, [3 x i8], i32, ptr, ptr, ptr, i32, i32, ptr, ptr, ptr, ptr, i32, ptr, i32, i32, i32, ptr, ptr, ptr, ptr, ptr, i32, i32, ptr, ptr, ptr, i32, i32, i32, i32, ptr, ptr, [6 x ptr] }
%struct._zend_op = type { ptr, %union._znode_op, %union._znode_op, %union._znode_op, i32, i32, i8, i8, i8, i8 }
%union._znode_op = type { i32 }
%struct.zend_get_gc_buffer = type { ptr, ptr, ptr }
%struct._zend_call_stack = type { ptr, i64 }
%struct._zend_strtod_state = type { [8 x ptr], ptr, ptr }
%struct._php_hash_ops = type { ptr, ptr, ptr, ptr, ptr, ptr, ptr, ptr, i64, i64, i64, i8 }
%struct._php_hashcontext_object = type { ptr, ptr, i64, ptr, %struct._zend_object }
%struct._zend_object = type { %struct._zend_refcounted_h, i32, i32, ptr, ptr, ptr, [1 x %struct._zval_struct] }
%struct.anon.4 = type { i8, i8, %union.anon.5 }
%union.anon.5 = type { i16 }
%struct._zend_execute_data = type { ptr, ptr, ptr, ptr, %struct._zval_struct, ptr, ptr, ptr, ptr }

@executor_globals = external global %struct._zend_executor_globals, align 8
@.str.26 = private unnamed_addr constant [55 x i8] c"HashContext with HASH_HMAC option cannot be serialized\00", align 1
@.str.28 = private unnamed_addr constant [2 x i8] c"h\00", align 1
@.str.29 = private unnamed_addr constant [56 x i8] c"HashContext::__unserialize called on initialized object\00", align 1
@.str.30 = private unnamed_addr constant [44 x i8] c"Incomplete or ill-formed serialization data\00", align 1
@.str.31 = private unnamed_addr constant [23 x i8] c"Unknown hash algorithm\00", align 1
@.str.32 = private unnamed_addr constant [43 x i8] c"Hash algorithm \22%s\22 cannot be unserialized\00", align 1
@.str.33 = private unnamed_addr constant [59 x i8] c"Incomplete or ill-formed serialization data (\22%s\22 code %d)\00", align 1

; Function Attrs: inlinehint nounwind uwtable
define internal ptr @php_hash_alloc_context(ptr noundef %0) #7 {
  %2 = alloca ptr, align 8
  store ptr %0, ptr %2, align 8, !tbaa !9
  %3 = load ptr, ptr %2, align 8, !tbaa !9
  %4 = getelementptr inbounds nuw %struct._php_hash_ops, ptr %3, i32 0, i32 10
  %5 = load i64, ptr %4, align 8, !tbaa !21
  %6 = call noalias ptr @_ecalloc(i64 noundef 1, i64 noundef %5) #20
  ret ptr %6
}

; Function Attrs: alwaysinline nounwind uwtable
define internal zeroext i8 @zval_get_type(ptr noundef %0) #2 {
  %2 = alloca ptr, align 8
  store ptr %0, ptr %2, align 8, !tbaa !13
  %3 = load ptr, ptr %2, align 8, !tbaa !13
  %4 = getelementptr inbounds nuw %struct._zval_struct, ptr %3, i32 0, i32 1
  %5 = getelementptr inbounds nuw %struct.anon.4, ptr %4, i32 0, i32 0
  %6 = load i8, ptr %5, align 8, !tbaa !15
  ret i8 %6
}

; Function Attrs: inlinehint nounwind uwtable
define internal ptr @php_hashcontext_from_object(ptr noundef %0) #7 {
  %2 = alloca ptr, align 8
  store ptr %0, ptr %2, align 8, !tbaa !59
  %3 = load ptr, ptr %2, align 8, !tbaa !59
  %4 = getelementptr inbounds %struct._zend_object, ptr %3, i64 1
  %5 = getelementptr inbounds %struct._php_hashcontext_object, ptr %4, i64 -1
  ret ptr %5
}

; Function Attrs: nounwind uwtable
define hidden void @zim_HashContext___unserialize(ptr noundef %0, ptr noundef %1) #0 {
  %3 = alloca ptr, align 8
  %4 = alloca ptr, align 8
  %5 = alloca ptr, align 8
  %6 = alloca ptr, align 8
  %7 = alloca ptr, align 8
  %8 = alloca ptr, align 8
  %9 = alloca ptr, align 8
  %10 = alloca ptr, align 8
  %11 = alloca ptr, align 8
  %12 = alloca ptr, align 8
  %13 = alloca i64, align 8
  %14 = alloca i64, align 8
  %15 = alloca i32, align 4
  %16 = alloca ptr, align 8
  %17 = alloca i32, align 4
  store ptr %0, ptr %3, align 8, !tbaa !51
  store ptr %1, ptr %4, align 8, !tbaa !13
  call void @llvm.lifetime.start.p0(i64 8, ptr %5) #16
  %18 = load ptr, ptr %3, align 8, !tbaa !51
  %19 = getelementptr inbounds nuw %struct._zend_execute_data, ptr %18, i32 0, i32 4
  store ptr %19, ptr %5, align 8, !tbaa !13
  call void @llvm.lifetime.start.p0(i64 8, ptr %6) #16
  %20 = load ptr, ptr %5, align 8, !tbaa !13
  %21 = getelementptr inbounds nuw %struct._zval_struct, ptr %20, i32 0, i32 0
  %22 = load ptr, ptr %21, align 8, !tbaa !15
  %23 = call ptr @php_hashcontext_from_object(ptr noundef %22)
  store ptr %23, ptr %6, align 8, !tbaa !24
  call void @llvm.lifetime.start.p0(i64 8, ptr %7) #16
  call void @llvm.lifetime.start.p0(i64 8, ptr %8) #16
  call void @llvm.lifetime.start.p0(i64 8, ptr %9) #16
  call void @llvm.lifetime.start.p0(i64 8, ptr %10) #16
  call void @llvm.lifetime.start.p0(i64 8, ptr %11) #16
  call void @llvm.lifetime.start.p0(i64 8, ptr %12) #16
  call void @llvm.lifetime.start.p0(i64 8, ptr %13) #16
  call void @llvm.lifetime.start.p0(i64 8, ptr %14) #16
  call void @llvm.lifetime.start.p0(i64 4, ptr %15) #16
  call void @llvm.lifetime.start.p0(i64 8, ptr %16) #16
  %24 = load ptr, ptr %3, align 8, !tbaa !51
  %25 = getelementptr inbounds nuw %struct._zend_execute_data, ptr %24, i32 0, i32 4
  %26 = getelementptr inbounds nuw %struct._zval_struct, ptr %25, i32 0, i32 2
  %27 = load i32, ptr %26, align 4, !tbaa !15
  %28 = call i32 (i32, ptr, ...) @zend_parse_parameters(i32 noundef %27, ptr noundef @.str.28, ptr noundef %7)
  %29 = icmp eq i32 %28, -1
  br i1 %29, label %30, label %36

30:                                               ; preds = %2
  br label %31

31:                                               ; preds = %30
  %32 = load ptr, ptr getelementptr inbounds nuw (%struct._zend_executor_globals, ptr @executor_globals, i32 0, i32 54), align 8, !tbaa !67
  %33 = icmp ne ptr %32, null
  call void @llvm.assume(i1 %33)
  store i32 1, ptr %17, align 4
  br label %193

34:                                               ; No predecessors!
  br label %35

35:                                               ; preds = %34
  br label %36

36:                                               ; preds = %35, %2
  %37 = load ptr, ptr %6, align 8, !tbaa !24
  %38 = getelementptr inbounds nuw %struct._php_hashcontext_object, ptr %37, i32 0, i32 1
  %39 = load ptr, ptr %38, align 8, !tbaa !26
  %40 = icmp ne ptr %39, null
  br i1 %40, label %41, label %48

41:                                               ; preds = %36
  %42 = call ptr @zend_throw_exception(ptr noundef null, ptr noundef @.str.29, i64 noundef 0)
  br label %43

43:                                               ; preds = %41
  %44 = load ptr, ptr getelementptr inbounds nuw (%struct._zend_executor_globals, ptr @executor_globals, i32 0, i32 54), align 8, !tbaa !67
  %45 = icmp ne ptr %44, null
  call void @llvm.assume(i1 %45)
  store i32 1, ptr %17, align 4
  br label %193

46:                                               ; No predecessors!
  br label %47

47:                                               ; preds = %46
  br label %48

48:                                               ; preds = %47, %36
  %49 = load ptr, ptr %7, align 8, !tbaa !11
  %50 = call ptr @zend_hash_index_find(ptr noundef %49, i64 noundef 0)
  store ptr %50, ptr %8, align 8, !tbaa !13
  %51 = load ptr, ptr %7, align 8, !tbaa !11
  %52 = call ptr @zend_hash_index_find(ptr noundef %51, i64 noundef 1)
  store ptr %52, ptr %10, align 8, !tbaa !13
  %53 = load ptr, ptr %7, align 8, !tbaa !11
  %54 = call ptr @zend_hash_index_find(ptr noundef %53, i64 noundef 2)
  store ptr %54, ptr %11, align 8, !tbaa !13
  %55 = load ptr, ptr %7, align 8, !tbaa !11
  %56 = call ptr @zend_hash_index_find(ptr noundef %55, i64 noundef 3)
  store ptr %56, ptr %9, align 8, !tbaa !13
  %57 = load ptr, ptr %7, align 8, !tbaa !11
  %58 = call ptr @zend_hash_index_find(ptr noundef %57, i64 noundef 4)
  store ptr %58, ptr %12, align 8, !tbaa !13
  %59 = load ptr, ptr %8, align 8, !tbaa !13
  %60 = icmp ne ptr %59, null
  br i1 %60, label %61, label %93

61:                                               ; preds = %48
  %62 = load ptr, ptr %8, align 8, !tbaa !13
  %63 = call zeroext i8 @zval_get_type(ptr noundef %62)
  %64 = zext i8 %63 to i32
  %65 = icmp ne i32 %64, 6
  br i1 %65, label %93, label %66

66:                                               ; preds = %61
  %67 = load ptr, ptr %9, align 8, !tbaa !13
  %68 = icmp ne ptr %67, null
  br i1 %68, label %69, label %93

69:                                               ; preds = %66
  %70 = load ptr, ptr %9, align 8, !tbaa !13
  %71 = call zeroext i8 @zval_get_type(ptr noundef %70)
  %72 = zext i8 %71 to i32
  %73 = icmp ne i32 %72, 4
  br i1 %73, label %93, label %74

74:                                               ; preds = %69
  %75 = load ptr, ptr %10, align 8, !tbaa !13
  %76 = icmp ne ptr %75, null
  br i1 %76, label %77, label %93

77:                                               ; preds = %74
  %78 = load ptr, ptr %10, align 8, !tbaa !13
  %79 = call zeroext i8 @zval_get_type(ptr noundef %78)
  %80 = zext i8 %79 to i32
  %81 = icmp ne i32 %80, 4
  br i1 %81, label %93, label %82

82:                                               ; preds = %77
  %83 = load ptr, ptr %11, align 8, !tbaa !13
  %84 = icmp ne ptr %83, null
  br i1 %84, label %85, label %93

85:                                               ; preds = %82
  %86 = load ptr, ptr %12, align 8, !tbaa !13
  %87 = icmp ne ptr %86, null
  br i1 %87, label %88, label %93

88:                                               ; preds = %85
  %89 = load ptr, ptr %12, align 8, !tbaa !13
  %90 = call zeroext i8 @zval_get_type(ptr noundef %89)
  %91 = zext i8 %90 to i32
  %92 = icmp ne i32 %91, 7
  br i1 %92, label %93, label %100

93:                                               ; preds = %88, %85, %82, %77, %74, %69, %66, %61, %48
  %94 = call ptr @zend_throw_exception(ptr noundef null, ptr noundef @.str.30, i64 noundef 0)
  br label %95

95:                                               ; preds = %93
  %96 = load ptr, ptr getelementptr inbounds nuw (%struct._zend_executor_globals, ptr @executor_globals, i32 0, i32 54), align 8, !tbaa !67
  %97 = icmp ne ptr %96, null
  call void @llvm.assume(i1 %97)
  store i32 1, ptr %17, align 4
  br label %193

98:                                               ; No predecessors!
  br label %99

99:                                               ; preds = %98
  br label %100

100:                                              ; preds = %99, %88
  %101 = load ptr, ptr %9, align 8, !tbaa !13
  %102 = getelementptr inbounds nuw %struct._zval_struct, ptr %101, i32 0, i32 0
  %103 = load i64, ptr %102, align 8, !tbaa !15
  store i64 %103, ptr %13, align 8, !tbaa !18
  %104 = load ptr, ptr %10, align 8, !tbaa !13
  %105 = getelementptr inbounds nuw %struct._zval_struct, ptr %104, i32 0, i32 0
  %106 = load i64, ptr %105, align 8, !tbaa !15
  store i64 %106, ptr %14, align 8, !tbaa !18
  %107 = load i64, ptr %14, align 8, !tbaa !18
  %108 = and i64 %107, 1
  %109 = icmp ne i64 %108, 0
  br i1 %109, label %110, label %117

110:                                              ; preds = %100
  %111 = call ptr @zend_throw_exception(ptr noundef null, ptr noundef @.str.26, i64 noundef 0)
  br label %112

112:                                              ; preds = %110
  %113 = load ptr, ptr getelementptr inbounds nuw (%struct._zend_executor_globals, ptr @executor_globals, i32 0, i32 54), align 8, !tbaa !67
  %114 = icmp ne ptr %113, null
  call void @llvm.assume(i1 %114)
  store i32 1, ptr %17, align 4
  br label %193

115:                                              ; No predecessors!
  br label %116

116:                                              ; preds = %115
  br label %117

117:                                              ; preds = %116, %100
  %118 = load ptr, ptr %8, align 8, !tbaa !13
  %119 = getelementptr inbounds nuw %struct._zval_struct, ptr %118, i32 0, i32 0
  %120 = load ptr, ptr %119, align 8, !tbaa !15
  %121 = call ptr @php_hash_fetch_ops(ptr noundef %120)
  store ptr %121, ptr %16, align 8, !tbaa !9
  %122 = load ptr, ptr %16, align 8, !tbaa !9
  %123 = icmp ne ptr %122, null
  br i1 %123, label %131, label %124

124:                                              ; preds = %117
  %125 = call ptr @zend_throw_exception(ptr noundef null, ptr noundef @.str.31, i64 noundef 0)
  br label %126

126:                                              ; preds = %124
  %127 = load ptr, ptr getelementptr inbounds nuw (%struct._zend_executor_globals, ptr @executor_globals, i32 0, i32 54), align 8, !tbaa !67
  %128 = icmp ne ptr %127, null
  call void @llvm.assume(i1 %128)
  store i32 1, ptr %17, align 4
  br label %193

129:                                              ; No predecessors!
  br label %130

130:                                              ; preds = %129
  br label %147

131:                                              ; preds = %117
  %132 = load ptr, ptr %16, align 8, !tbaa !9
  %133 = getelementptr inbounds nuw %struct._php_hash_ops, ptr %132, i32 0, i32 6
  %134 = load ptr, ptr %133, align 8, !tbaa !112
  %135 = icmp ne ptr %134, null
  br i1 %135, label %146, label %136

136:                                              ; preds = %131
  %137 = load ptr, ptr %16, align 8, !tbaa !9
  %138 = getelementptr inbounds nuw %struct._php_hash_ops, ptr %137, i32 0, i32 0
  %139 = load ptr, ptr %138, align 8, !tbaa !111
  %140 = call ptr (ptr, i64, ptr, ...) @zend_throw_exception_ex(ptr noundef null, i64 noundef 0, ptr noundef @.str.32, ptr noundef %139)
  br label %141

141:                                              ; preds = %136
  %142 = load ptr, ptr getelementptr inbounds nuw (%struct._zend_executor_globals, ptr @executor_globals, i32 0, i32 54), align 8, !tbaa !67
  %143 = icmp ne ptr %142, null
  call void @llvm.assume(i1 %143)
  store i32 1, ptr %17, align 4
  br label %193

144:                                              ; No predecessors!
  br label %145

145:                                              ; preds = %144
  br label %146

146:                                              ; preds = %145, %131
  br label %147

147:                                              ; preds = %146, %130
  %148 = load ptr, ptr %16, align 8, !tbaa !9
  %149 = load ptr, ptr %6, align 8, !tbaa !24
  %150 = getelementptr inbounds nuw %struct._php_hashcontext_object, ptr %149, i32 0, i32 0
  store ptr %148, ptr %150, align 8, !tbaa !32
  %151 = load ptr, ptr %16, align 8, !tbaa !9
  %152 = call ptr @php_hash_alloc_context(ptr noundef %151)
  %153 = load ptr, ptr %6, align 8, !tbaa !24
  %154 = getelementptr inbounds nuw %struct._php_hashcontext_object, ptr %153, i32 0, i32 1
  store ptr %152, ptr %154, align 8, !tbaa !26
  %155 = load i64, ptr %14, align 8, !tbaa !18
  %156 = load ptr, ptr %6, align 8, !tbaa !24
  %157 = getelementptr inbounds nuw %struct._php_hashcontext_object, ptr %156, i32 0, i32 2
  store i64 %155, ptr %157, align 8, !tbaa !100
  %158 = load ptr, ptr %16, align 8, !tbaa !9
  %159 = getelementptr inbounds nuw %struct._php_hash_ops, ptr %158, i32 0, i32 1
  %160 = load ptr, ptr %159, align 8, !tbaa !94
  %161 = load ptr, ptr %6, align 8, !tbaa !24
  %162 = getelementptr inbounds nuw %struct._php_hashcontext_object, ptr %161, i32 0, i32 1
  %163 = load ptr, ptr %162, align 8, !tbaa !26
  call void %160(ptr noundef %163, ptr noundef null)
  %164 = load ptr, ptr %16, align 8, !tbaa !9
  %165 = getelementptr inbounds nuw %struct._php_hash_ops, ptr %164, i32 0, i32 6
  %166 = load ptr, ptr %165, align 8, !tbaa !112
  %167 = load ptr, ptr %6, align 8, !tbaa !24
  %168 = load i64, ptr %13, align 8, !tbaa !18
  %169 = load ptr, ptr %11, align 8, !tbaa !13
  %170 = call i32 %166(ptr noundef %167, i64 noundef %168, ptr noundef %169)
  store i32 %170, ptr %15, align 4, !tbaa !47
  %171 = load i32, ptr %15, align 4, !tbaa !47
  %172 = icmp ne i32 %171, 0
  br i1 %172, label %173, label %187

173:                                              ; preds = %147
  %174 = load ptr, ptr %16, align 8, !tbaa !9
  %175 = getelementptr inbounds nuw %struct._php_hash_ops, ptr %174, i32 0, i32 0
  %176 = load ptr, ptr %175, align 8, !tbaa !111
  %177 = load i32, ptr %15, align 4, !tbaa !47
  %178 = call ptr (ptr, i64, ptr, ...) @zend_throw_exception_ex(ptr noundef null, i64 noundef 0, ptr noundef @.str.33, ptr noundef %176, i32 noundef %177)
  %179 = load ptr, ptr %5, align 8, !tbaa !13
  %180 = getelementptr inbounds nuw %struct._zval_struct, ptr %179, i32 0, i32 0
  %181 = load ptr, ptr %180, align 8, !tbaa !15
  call void @php_hashcontext_dtor(ptr noundef %181)
  br label %182

182:                                              ; preds = %173
  %183 = load ptr, ptr getelementptr inbounds nuw (%struct._zend_executor_globals, ptr @executor_globals, i32 0, i32 54), align 8, !tbaa !67
  %184 = icmp ne ptr %183, null
  call void @llvm.assume(i1 %184)
  store i32 1, ptr %17, align 4
  br label %193

185:                                              ; No predecessors!
  br label %186

186:                                              ; preds = %185
  br label %187

187:                                              ; preds = %186, %147
  %188 = load ptr, ptr %6, align 8, !tbaa !24
  %189 = getelementptr inbounds nuw %struct._php_hashcontext_object, ptr %188, i32 0, i32 4
  %190 = load ptr, ptr %12, align 8, !tbaa !13
  %191 = getelementptr inbounds nuw %struct._zval_struct, ptr %190, i32 0, i32 0
  %192 = load ptr, ptr %191, align 8, !tbaa !15
  call void @object_properties_load(ptr noundef %189, ptr noundef %192)
  store i32 0, ptr %17, align 4
  br label %193

193:                                              ; preds = %187, %182, %141, %126, %112, %95, %43, %31
  call void @llvm.lifetime.end.p0(i64 8, ptr %16) #16
  call void @llvm.lifetime.end.p0(i64 4, ptr %15) #16
  call void @llvm.lifetime.end.p0(i64 8, ptr %14) #16
  call void @llvm.lifetime.end.p0(i64 8, ptr %13) #16
  call void @llvm.lifetime.end.p0(i64 8, ptr %12) #16
  call void @llvm.lifetime.end.p0(i64 8, ptr %11) #16
  call void @llvm.lifetime.end.p0(i64 8, ptr %10) #16
  call void @llvm.lifetime.end.p0(i64 8, ptr %9) #16
  call void @llvm.lifetime.end.p0(i64 8, ptr %8) #16
  call void @llvm.lifetime.end.p0(i64 8, ptr %7) #16
  call void @llvm.lifetime.end.p0(i64 8, ptr %6) #16
  call void @llvm.lifetime.end.p0(i64 8, ptr %5) #16
  %194 = load i32, ptr %17, align 4
  switch i32 %194, label %196 [
    i32 0, label %195
    i32 1, label %195
  ]

195:                                              ; preds = %193, %193
  ret void

196:                                              ; preds = %193
  unreachable
}