; Function Attrs: nounwind uwtable
define hidden void @zim_HashContext___unserialize(ptr noundef readonly captures(none) %0, ptr readnone captures(none) %1) #0 {
  %3 = alloca ptr, align 8
  %4 = getelementptr inbounds nuw i8, ptr %0, i64 32
  %5 = load ptr, ptr %4, align 8, !tbaa !4
  %6 = getelementptr inbounds i8, ptr %5, i64 -32
  call void @llvm.lifetime.start.p0(i64 8, ptr nonnull %3) #16
  %7 = getelementptr inbounds nuw i8, ptr %0, i64 44
  %8 = load i32, ptr %7, align 4, !tbaa !4
  %9 = call i32 (i32, ptr, ...) @zend_parse_parameters(i32 noundef %8, ptr noundef nonnull @.str.28, ptr noundef nonnull %3) #16
  %10 = icmp eq i32 %9, -1
  br i1 %10, label %11, label %14

11:                                               ; preds = %2
  %12 = load ptr, ptr getelementptr inbounds nuw (i8, ptr @executor_globals, i64 960), align 8, !tbaa !47
  %13 = icmp ne ptr %12, null
  call void @llvm.assume(i1 %13)
  br label %94

14:                                               ; preds = %2
  %15 = getelementptr inbounds i8, ptr %5, i64 -24
  %16 = load ptr, ptr %15, align 8, !tbaa !19
  %.not = icmp eq ptr %16, null
  br i1 %.not, label %21, label %17

17:                                               ; preds = %14
  %18 = call ptr @zend_throw_exception(ptr noundef null, ptr noundef nonnull @.str.29, i64 noundef 0) #16
  %19 = load ptr, ptr getelementptr inbounds nuw (i8, ptr @executor_globals, i64 960), align 8, !tbaa !47
  %20 = icmp ne ptr %19, null
  call void @llvm.assume(i1 %20)
  br label %94

21:                                               ; preds = %14
  %22 = load ptr, ptr %3, align 8, !tbaa !84
  %23 = call ptr @zend_hash_index_find(ptr noundef %22, i64 noundef 0) #16
  %24 = load ptr, ptr %3, align 8, !tbaa !84
  %25 = call ptr @zend_hash_index_find(ptr noundef %24, i64 noundef 1) #16
  %26 = load ptr, ptr %3, align 8, !tbaa !84
  %27 = call ptr @zend_hash_index_find(ptr noundef %26, i64 noundef 2) #16
  %28 = load ptr, ptr %3, align 8, !tbaa !84
  %29 = call ptr @zend_hash_index_find(ptr noundef %28, i64 noundef 3) #16
  %30 = load ptr, ptr %3, align 8, !tbaa !84
  %31 = call ptr @zend_hash_index_find(ptr noundef %30, i64 noundef 4) #16
  %.not50 = icmp eq ptr %23, null
  br i1 %.not50, label %51, label %32

32:                                               ; preds = %21
  %33 = getelementptr inbounds nuw i8, ptr %23, i64 8
  %34 = load i8, ptr %33, align 8, !tbaa !4
  %35 = icmp eq i8 %34, 6
  %36 = icmp ne ptr %29, null
  %or.cond = select i1 %35, i1 %36, i1 false
  br i1 %or.cond, label %37, label %51

37:                                               ; preds = %32
  %38 = getelementptr inbounds nuw i8, ptr %29, i64 8
  %39 = load i8, ptr %38, align 8, !tbaa !4
  %40 = icmp eq i8 %39, 4
  %41 = icmp ne ptr %25, null
  %or.cond3 = select i1 %40, i1 %41, i1 false
  br i1 %or.cond3, label %42, label %51

42:                                               ; preds = %37
  %43 = getelementptr inbounds nuw i8, ptr %25, i64 8
  %44 = load i8, ptr %43, align 8, !tbaa !4
  %45 = icmp eq i8 %44, 4
  %46 = icmp ne ptr %27, null
  %or.cond5 = select i1 %45, i1 %46, i1 false
  %47 = icmp ne ptr %31, null
  %or.cond7 = select i1 %or.cond5, i1 %47, i1 false
  br i1 %or.cond7, label %48, label %51

48:                                               ; preds = %42
  %49 = getelementptr inbounds nuw i8, ptr %31, i64 8
  %50 = load i8, ptr %49, align 8, !tbaa !4
  %.not51 = icmp eq i8 %50, 7
  br i1 %.not51, label %55, label %51

51:                                               ; preds = %48, %42, %37, %32, %21
  %52 = call ptr @zend_throw_exception(ptr noundef null, ptr noundef nonnull @.str.30, i64 noundef 0) #16
  %53 = load ptr, ptr getelementptr inbounds nuw (i8, ptr @executor_globals, i64 960), align 8, !tbaa !47
  %54 = icmp ne ptr %53, null
  call void @llvm.assume(i1 %54)
  br label %94

55:                                               ; preds = %48
  %56 = load i64, ptr %29, align 8, !tbaa !4
  %57 = load i64, ptr %25, align 8, !tbaa !4
  %58 = and i64 %57, 1
  %.not52 = icmp eq i64 %58, 0
  br i1 %.not52, label %63, label %59

59:                                               ; preds = %55
  %60 = call ptr @zend_throw_exception(ptr noundef null, ptr noundef nonnull @.str.26, i64 noundef 0) #16
  %61 = load ptr, ptr getelementptr inbounds nuw (i8, ptr @executor_globals, i64 960), align 8, !tbaa !47
  %62 = icmp ne ptr %61, null
  call void @llvm.assume(i1 %62)
  br label %94

63:                                               ; preds = %55
  %64 = load ptr, ptr %23, align 8, !tbaa !4
  %65 = call ptr @php_hash_fetch_ops(ptr noundef %64)
  %.not53 = icmp eq ptr %65, null
  br i1 %.not53, label %66, label %70

66:                                               ; preds = %63
  %67 = call ptr @zend_throw_exception(ptr noundef null, ptr noundef nonnull @.str.31, i64 noundef 0) #16
  %68 = load ptr, ptr getelementptr inbounds nuw (i8, ptr @executor_globals, i64 960), align 8, !tbaa !47
  %69 = icmp ne ptr %68, null
  call void @llvm.assume(i1 %69)
  br label %94

70:                                               ; preds = %63
  %71 = getelementptr inbounds nuw i8, ptr %65, i64 48
  %72 = load ptr, ptr %71, align 8, !tbaa !97
  %.not54 = icmp eq ptr %72, null
  br i1 %.not54, label %73, label %78

73:                                               ; preds = %70
  %74 = load ptr, ptr %65, align 8, !tbaa !96
  %75 = call ptr (ptr, i64, ptr, ...) @zend_throw_exception_ex(ptr noundef null, i64 noundef 0, ptr noundef nonnull @.str.32, ptr noundef %74) #16
  %76 = load ptr, ptr getelementptr inbounds nuw (i8, ptr @executor_globals, i64 960), align 8, !tbaa !47
  %77 = icmp ne ptr %76, null
  call void @llvm.assume(i1 %77)
  br label %94

78:                                               ; preds = %70
  store ptr %65, ptr %6, align 8, !tbaa !26
  %79 = getelementptr i8, ptr %65, i64 80
  %.val = load i64, ptr %79, align 8, !tbaa !13
  %80 = call noalias ptr @_ecalloc(i64 noundef 1, i64 noundef %.val) #20
  store ptr %80, ptr %15, align 8, !tbaa !19
  %81 = getelementptr inbounds i8, ptr %5, i64 -16
  store i64 %57, ptr %81, align 8, !tbaa !86
  %82 = getelementptr inbounds nuw i8, ptr %65, i64 8
  %83 = load ptr, ptr %82, align 8, !tbaa !79
  call void %83(ptr noundef %80, ptr noundef null) #16
  %84 = load ptr, ptr %71, align 8, !tbaa !97
  %85 = call i32 %84(ptr noundef nonnull %6, i64 noundef %56, ptr noundef nonnull %27) #16
  %.not55 = icmp eq i32 %85, 0
  br i1 %.not55, label %92, label %86

86:                                               ; preds = %78
  %87 = load ptr, ptr %65, align 8, !tbaa !96
  %88 = call ptr (ptr, i64, ptr, ...) @zend_throw_exception_ex(ptr noundef null, i64 noundef 0, ptr noundef nonnull @.str.33, ptr noundef %87, i32 noundef %85) #16
  %89 = load ptr, ptr %4, align 8, !tbaa !4
  call fastcc void @php_hashcontext_dtor(ptr noundef %89)
  %90 = load ptr, ptr getelementptr inbounds nuw (i8, ptr @executor_globals, i64 960), align 8, !tbaa !47
  %91 = icmp ne ptr %90, null
  call void @llvm.assume(i1 %91)
  br label %94

92:                                               ; preds = %78
  %93 = load ptr, ptr %31, align 8, !tbaa !4
  call void @object_properties_load(ptr noundef nonnull %5, ptr noundef %93) #16
  br label %94

94:                                               ; preds = %92, %86, %73, %66, %59, %51, %17, %11
  call void @llvm.lifetime.end.p0(i64 8, ptr nonnull %3) #16
  ret void
}